target datalayout = "e-m:e-p270:32:32-p271:32:32-p272:64:64-i64:64-i128:128-f80:128-n8:16:32:64-S128"
target triple = "x86_64-pc-linux-gnu"

%struct.gz_state = type { i32, i32, ptr, i64, i32, i32, ptr, ptr, ptr, i32, i32, i64, i64, i32, i32, i32, i32, i64, i32, i32, ptr, %struct.z_stream_s }
%struct.z_stream_s = type { ptr, i32, i64, ptr, i32, i64, ptr, ptr, ptr, ptr, ptr, i32, i64, i64 }

@.str = private unnamed_addr constant [37 x i8] c"requested length does not fit in int\00", align 1

; Function Attrs: nounwind uwtable
define internal i32 @gz_zero(ptr noundef %0, i64 noundef %1) #0 {
  %3 = alloca i32, align 4
  %4 = alloca ptr, align 8
  %5 = alloca i64, align 8
  %6 = alloca i32, align 4
  %7 = alloca i32, align 4
  %8 = alloca ptr, align 8
  %9 = alloca i32, align 4
  store ptr %0, ptr %4, align 8, !tbaa !3
  store i64 %1, ptr %5, align 8, !tbaa !37
  call void @llvm.lifetime.start.p0(i64 4, ptr %6) #10
  call void @llvm.lifetime.start.p0(i64 4, ptr %7) #10
  call void @llvm.lifetime.start.p0(i64 8, ptr %8) #10
  %10 = load ptr, ptr %4, align 8, !tbaa !3
  %11 = getelementptr inbounds nuw %struct.gz_state, ptr %10, i32 0, i32 21
  store ptr %11, ptr %8, align 8, !tbaa !9
  %12 = load ptr, ptr %8, align 8, !tbaa !9
  %13 = getelementptr inbounds nuw %struct.z_stream_s, ptr %12, i32 0, i32 1
  %14 = load i32, ptr %13, align 8, !tbaa !21
  %15 = icmp ne i32 %14, 0
  br i1 %15, label %16, label %21

16:                                               ; preds = %2
  %17 = load ptr, ptr %4, align 8, !tbaa !3
  %18 = call i32 @gz_comp(ptr noundef %17, i32 noundef 0)
  %19 = icmp eq i32 %18, -1
  br i1 %19, label %20, label %21

20:                                               ; preds = %16
  store i32 -1, ptr %3, align 4
  store i32 1, ptr %9, align 4
  br label %74

21:                                               ; preds = %16, %2
  store i32 1, ptr %6, align 4, !tbaa !7
  br label %22

22:                                               ; preds = %68, %21
  %23 = load i64, ptr %5, align 8, !tbaa !37
  %24 = icmp ne i64 %23, 0
  br i1 %24, label %25, label %73

25:                                               ; preds = %22
  %26 = load ptr, ptr %4, align 8, !tbaa !3
  %27 = getelementptr inbounds nuw %struct.gz_state, ptr %26, i32 0, i32 4
  %28 = load i32, ptr %27, align 8, !tbaa !18
  %29 = zext i32 %28 to i64
  %30 = load i64, ptr %5, align 8, !tbaa !37
  %31 = icmp sgt i64 %29, %30
  br i1 %31, label %32, label %35

32:                                               ; preds = %25
  %33 = load i64, ptr %5, align 8, !tbaa !37
  %34 = trunc i64 %33 to i32
  br label %39

35:                                               ; preds = %25
  %36 = load ptr, ptr %4, align 8, !tbaa !3
  %37 = getelementptr inbounds nuw %struct.gz_state, ptr %36, i32 0, i32 4
  %38 = load i32, ptr %37, align 8, !tbaa !18
  br label %39

39:                                               ; preds = %35, %32
  %40 = phi i32 [ %34, %32 ], [ %38, %35 ]
  store i32 %40, ptr %7, align 4, !tbaa !7
  %41 = load i32, ptr %6, align 4, !tbaa !7
  %42 = icmp ne i32 %41, 0
  br i1 %42, label %43, label %49

43:                                               ; preds = %39
  %44 = load ptr, ptr %4, align 8, !tbaa !3
  %45 = getelementptr inbounds nuw %struct.gz_state, ptr %44, i32 0, i32 6
  %46 = load ptr, ptr %45, align 8, !tbaa !22
  %47 = load i32, ptr %7, align 4, !tbaa !7
  %48 = zext i32 %47 to i64
  call void @llvm.memset.p0.i64(ptr align 1 %46, i8 0, i64 %48, i1 false)
  store i32 0, ptr %6, align 4, !tbaa !7
  br label %49

49:                                               ; preds = %43, %39
  %50 = load i32, ptr %7, align 4, !tbaa !7
  %51 = load ptr, ptr %8, align 8, !tbaa !9
  %52 = getelementptr inbounds nuw %struct.z_stream_s, ptr %51, i32 0, i32 1
  store i32 %50, ptr %52, align 8, !tbaa !21
  %53 = load ptr, ptr %4, align 8, !tbaa !3
  %54 = getelementptr inbounds nuw %struct.gz_state, ptr %53, i32 0, i32 6
  %55 = load ptr, ptr %54, align 8, !tbaa !22
  %56 = load ptr, ptr %8, align 8, !tbaa !9
  %57 = getelementptr inbounds nuw %struct.z_stream_s, ptr %56, i32 0, i32 0
  store ptr %55, ptr %57, align 8, !tbaa !23
  %58 = load i32, ptr %7, align 4, !tbaa !7
  %59 = zext i32 %58 to i64
  %60 = load ptr, ptr %4, align 8, !tbaa !3
  %61 = getelementptr inbounds nuw %struct.gz_state, ptr %60, i32 0, i32 3
  %62 = load i64, ptr %61, align 8, !tbaa !24
  %63 = add nsw i64 %62, %59
  store i64 %63, ptr %61, align 8, !tbaa !24
  %64 = load ptr, ptr %4, align 8, !tbaa !3
  %65 = call i32 @gz_comp(ptr noundef %64, i32 noundef 0)
  %66 = icmp eq i32 %65, -1
  br i1 %66, label %67, label %68

67:                                               ; preds = %49
  store i32 -1, ptr %3, align 4
  store i32 1, ptr %9, align 4
  br label %74

68:                                               ; preds = %49
  %69 = load i32, ptr %7, align 4, !tbaa !7
  %70 = zext i32 %69 to i64
  %71 = load i64, ptr %5, align 8, !tbaa !37
  %72 = sub nsw i64 %71, %70
  store i64 %72, ptr %5, align 8, !tbaa !37
  br label %22, !llvm.loop !38

73:                                               ; preds = %22
  store i32 0, ptr %3, align 4
  store i32 1, ptr %9, align 4
  br label %74

74:                                               ; preds = %73, %67, %20
  call void @llvm.lifetime.end.p0(i64 8, ptr %8) #10
  call void @llvm.lifetime.end.p0(i64 4, ptr %7) #10
  call void @llvm.lifetime.end.p0(i64 4, ptr %6) #10
  %75 = load i32, ptr %3, align 4
  ret i32 %75
}

; Function Attrs: nounwind uwtable
define i32 @gzwrite(ptr noundef %0, ptr noundef %1, i32 noundef %2) #0 {
  %4 = alloca i32, align 4
  %5 = alloca ptr, align 8
  %6 = alloca ptr, align 8
  %7 = alloca i32, align 4
  %8 = alloca i32, align 4
  %9 = alloca i32, align 4
  %10 = alloca ptr, align 8
  %11 = alloca ptr, align 8
  %12 = alloca i32, align 4
  store ptr %0, ptr %5, align 8, !tbaa !3
  store ptr %1, ptr %6, align 8, !tbaa !3
  store i32 %2, ptr %7, align 4, !tbaa !7
  call void @llvm.lifetime.start.p0(i64 4, ptr %8) #10
  %13 = load i32, ptr %7, align 4, !tbaa !7
  store i32 %13, ptr %8, align 4, !tbaa !7
  call void @llvm.lifetime.start.p0(i64 4, ptr %9) #10
  call void @llvm.lifetime.start.p0(i64 8, ptr %10) #10
  call void @llvm.lifetime.start.p0(i64 8, ptr %11) #10
  %14 = load ptr, ptr %5, align 8, !tbaa !3
  %15 = icmp eq ptr %14, null
  br i1 %15, label %16, label %17

16:                                               ; preds = %3
  store i32 0, ptr %4, align 4
  store i32 1, ptr %12, align 4
  br label %169

17:                                               ; preds = %3
  %18 = load ptr, ptr %5, align 8, !tbaa !3
  store ptr %18, ptr %10, align 8, !tbaa !3
  %19 = load ptr, ptr %10, align 8, !tbaa !3
  %20 = getelementptr inbounds nuw %struct.gz_state, ptr %19, i32 0, i32 21
  store ptr %20, ptr %11, align 8, !tbaa !9
  %21 = load ptr, ptr %10, align 8, !tbaa !3
  %22 = getelementptr inbounds nuw %struct.gz_state, ptr %21, i32 0, i32 0
  %23 = load i32, ptr %22, align 8, !tbaa !11
  %24 = icmp ne i32 %23, 31153
  br i1 %24, label %30, label %25

25:                                               ; preds = %17
  %26 = load ptr, ptr %10, align 8, !tbaa !3
  %27 = getelementptr inbounds nuw %struct.gz_state, ptr %26, i32 0, i32 19
  %28 = load i32, ptr %27, align 4, !tbaa !17
  %29 = icmp ne i32 %28, 0
  br i1 %29, label %30, label %31

30:                                               ; preds = %25, %17
  store i32 0, ptr %4, align 4
  store i32 1, ptr %12, align 4
  br label %169

31:                                               ; preds = %25
  %32 = load i32, ptr %7, align 4, !tbaa !7
  %33 = icmp slt i32 %32, 0
  br i1 %33, label %34, label %36

34:                                               ; preds = %31
  %35 = load ptr, ptr %10, align 8, !tbaa !3
  call void @gz_error(ptr noundef %35, i32 noundef -5, ptr noundef @.str)
  store i32 0, ptr %4, align 4
  store i32 1, ptr %12, align 4
  br label %169

36:                                               ; preds = %31
  %37 = load i32, ptr %7, align 4, !tbaa !7
  %38 = icmp eq i32 %37, 0
  br i1 %38, label %39, label %40

39:                                               ; preds = %36
  store i32 0, ptr %4, align 4
  store i32 1, ptr %12, align 4
  br label %169

40:                                               ; preds = %36
  %41 = load ptr, ptr %10, align 8, !tbaa !3
  %42 = getelementptr inbounds nuw %struct.gz_state, ptr %41, i32 0, i32 4
  %43 = load i32, ptr %42, align 8, !tbaa !18
  %44 = icmp eq i32 %43, 0
  br i1 %44, label %45, label %50

45:                                               ; preds = %40
  %46 = load ptr, ptr %10, align 8, !tbaa !3
  %47 = call i32 @gz_init(ptr noundef %46)
  %48 = icmp eq i32 %47, -1
  br i1 %48, label %49, label %50

49:                                               ; preds = %45
  store i32 0, ptr %4, align 4
  store i32 1, ptr %12, align 4
  br label %169

50:                                               ; preds = %45, %40
  %51 = load ptr, ptr %10, align 8, !tbaa !3
  %52 = getelementptr inbounds nuw %struct.gz_state, ptr %51, i32 0, i32 18
  %53 = load i32, ptr %52, align 8, !tbaa !19
  %54 = icmp ne i32 %53, 0
  br i1 %54, label %55, label %66

55:                                               ; preds = %50
  %56 = load ptr, ptr %10, align 8, !tbaa !3
  %57 = getelementptr inbounds nuw %struct.gz_state, ptr %56, i32 0, i32 18
  store i32 0, ptr %57, align 8, !tbaa !19
  %58 = load ptr, ptr %10, align 8, !tbaa !3
  %59 = load ptr, ptr %10, align 8, !tbaa !3
  %60 = getelementptr inbounds nuw %struct.gz_state, ptr %59, i32 0, i32 17
  %61 = load i64, ptr %60, align 8, !tbaa !20
  %62 = call i32 @gz_zero(ptr noundef %58, i64 noundef %61)
  %63 = icmp eq i32 %62, -1
  br i1 %63, label %64, label %65

64:                                               ; preds = %55
  store i32 0, ptr %4, align 4
  store i32 1, ptr %12, align 4
  br label %169

65:                                               ; preds = %55
  br label %66

66:                                               ; preds = %65, %50
  %67 = load i32, ptr %7, align 4, !tbaa !7
  %68 = load ptr, ptr %10, align 8, !tbaa !3
  %69 = getelementptr inbounds nuw %struct.gz_state, ptr %68, i32 0, i32 4
  %70 = load i32, ptr %69, align 8, !tbaa !18
  %71 = icmp ult i32 %67, %70
  br i1 %71, label %72, label %139

72:                                               ; preds = %66
  br label %73

73:                                               ; preds = %135, %72
  %74 = load ptr, ptr %11, align 8, !tbaa !9
  %75 = getelementptr inbounds nuw %struct.z_stream_s, ptr %74, i32 0, i32 1
  %76 = load i32, ptr %75, align 8, !tbaa !21
  %77 = icmp eq i32 %76, 0
  br i1 %77, label %78, label %84

78:                                               ; preds = %73
  %79 = load ptr, ptr %10, align 8, !tbaa !3
  %80 = getelementptr inbounds nuw %struct.gz_state, ptr %79, i32 0, i32 6
  %81 = load ptr, ptr %80, align 8, !tbaa !22
  %82 = load ptr, ptr %11, align 8, !tbaa !9
  %83 = getelementptr inbounds nuw %struct.z_stream_s, ptr %82, i32 0, i32 0
  store ptr %81, ptr %83, align 8, !tbaa !23
  br label %84

84:                                               ; preds = %78, %73
  %85 = load ptr, ptr %10, align 8, !tbaa !3
  %86 = getelementptr inbounds nuw %struct.gz_state, ptr %85, i32 0, i32 4
  %87 = load i32, ptr %86, align 8, !tbaa !18
  %88 = load ptr, ptr %11, align 8, !tbaa !9
  %89 = getelementptr inbounds nuw %struct.z_stream_s, ptr %88, i32 0, i32 1
  %90 = load i32, ptr %89, align 8, !tbaa !21
  %91 = sub i32 %87, %90
  store i32 %91, ptr %9, align 4, !tbaa !7
  %92 = load i32, ptr %9, align 4, !tbaa !7
  %93 = load i32, ptr %7, align 4, !tbaa !7
  %94 = icmp ugt i32 %92, %93
  br i1 %94, label %95, label %97

95:                                               ; preds = %84
  %96 = load i32, ptr %7, align 4, !tbaa !7
  store i32 %96, ptr %9, align 4, !tbaa !7
  br label %97

97:                                               ; preds = %95, %84
  %98 = load ptr, ptr %11, align 8, !tbaa !9
  %99 = getelementptr inbounds nuw %struct.z_stream_s, ptr %98, i32 0, i32 0
  %100 = load ptr, ptr %99, align 8, !tbaa !23
  %101 = load ptr, ptr %11, align 8, !tbaa !9
  %102 = getelementptr inbounds nuw %struct.z_stream_s, ptr %101, i32 0, i32 1
  %103 = load i32, ptr %102, align 8, !tbaa !21
  %104 = zext i32 %103 to i64
  %105 = getelementptr inbounds nuw i8, ptr %100, i64 %104
  %106 = load ptr, ptr %6, align 8, !tbaa !3
  %107 = load i32, ptr %9, align 4, !tbaa !7
  %108 = zext i32 %107 to i64
  call void @llvm.memcpy.p0.p0.i64(ptr align 1 %105, ptr align 1 %106, i64 %108, i1 false)
  %109 = load i32, ptr %9, align 4, !tbaa !7
  %110 = load ptr, ptr %11, align 8, !tbaa !9
  %111 = getelementptr inbounds nuw %struct.z_stream_s, ptr %110, i32 0, i32 1
  %112 = load i32, ptr %111, align 8, !tbaa !21
  %113 = add i32 %112, %109
  store i32 %113, ptr %111, align 8, !tbaa !21
  %114 = load i32, ptr %9, align 4, !tbaa !7
  %115 = zext i32 %114 to i64
  %116 = load ptr, ptr %10, align 8, !tbaa !3
  %117 = getelementptr inbounds nuw %struct.gz_state, ptr %116, i32 0, i32 3
  %118 = load i64, ptr %117, align 8, !tbaa !24
  %119 = add nsw i64 %118, %115
  store i64 %119, ptr %117, align 8, !tbaa !24
  %120 = load ptr, ptr %6, align 8, !tbaa !3
  %121 = load i32, ptr %9, align 4, !tbaa !7
  %122 = zext i32 %121 to i64
  %123 = getelementptr inbounds nuw i8, ptr %120, i64 %122
  store ptr %123, ptr %6, align 8, !tbaa !3
  %124 = load i32, ptr %9, align 4, !tbaa !7
  %125 = load i32, ptr %7, align 4, !tbaa !7
  %126 = sub i32 %125, %124
  store i32 %126, ptr %7, align 4, !tbaa !7
  %127 = load i32, ptr %7, align 4, !tbaa !7
  %128 = icmp ne i32 %127, 0
  br i1 %128, label %129, label %134

129:                                              ; preds = %97
  %130 = load ptr, ptr %10, align 8, !tbaa !3
  %131 = call i32 @gz_comp(ptr noundef %130, i32 noundef 0)
  %132 = icmp eq i32 %131, -1
  br i1 %132, label %133, label %134

133:                                              ; preds = %129
  store i32 0, ptr %4, align 4
  store i32 1, ptr %12, align 4
  br label %169

134:                                              ; preds = %129, %97
  br label %135

135:                                              ; preds = %134
  %136 = load i32, ptr %7, align 4, !tbaa !7
  %137 = icmp ne i32 %136, 0
  br i1 %137, label %73, label %138, !llvm.loop !25

138:                                              ; preds = %135
  br label %167

139:                                              ; preds = %66
  %140 = load ptr, ptr %11, align 8, !tbaa !9
  %141 = getelementptr inbounds nuw %struct.z_stream_s, ptr %140, i32 0, i32 1
  %142 = load i32, ptr %141, align 8, !tbaa !21
  %143 = icmp ne i32 %142, 0
  br i1 %143, label %144, label %149

144:                                              ; preds = %139
  %145 = load ptr, ptr %10, align 8, !tbaa !3
  %146 = call i32 @gz_comp(ptr noundef %145, i32 noundef 0)
  %147 = icmp eq i32 %146, -1
  br i1 %147, label %148, label %149

148:                                              ; preds = %144
  store i32 0, ptr %4, align 4
  store i32 1, ptr %12, align 4
  br label %169

149:                                              ; preds = %144, %139
  %150 = load i32, ptr %7, align 4, !tbaa !7
  %151 = load ptr, ptr %11, align 8, !tbaa !9
  %152 = getelementptr inbounds nuw %struct.z_stream_s, ptr %151, i32 0, i32 1
  store i32 %150, ptr %152, align 8, !tbaa !21
  %153 = load ptr, ptr %6, align 8, !tbaa !3
  %154 = load ptr, ptr %11, align 8, !tbaa !9
  %155 = getelementptr inbounds nuw %struct.z_stream_s, ptr %154, i32 0, i32 0
  store ptr %153, ptr %155, align 8, !tbaa !23
  %156 = load i32, ptr %7, align 4, !tbaa !7
  %157 = zext i32 %156 to i64
  %158 = load ptr, ptr %10, align 8, !tbaa !3
  %159 = getelementptr inbounds nuw %struct.gz_state, ptr %158, i32 0, i32 3
  %160 = load i64, ptr %159, align 8, !tbaa !24
  %161 = add nsw i64 %160, %157
  store i64 %161, ptr %159, align 8, !tbaa !24
  %162 = load ptr, ptr %10, align 8, !tbaa !3
  %163 = call i32 @gz_comp(ptr noundef %162, i32 noundef 0)
  %164 = icmp eq i32 %163, -1
  br i1 %164, label %165, label %166

165:                                              ; preds = %149
  store i32 0, ptr %4, align 4
  store i32 1, ptr %12, align 4
  br label %169

166:                                              ; preds = %149
  br label %167

167:                                              ; preds = %166, %138
  %168 = load i32, ptr %8, align 4, !tbaa !7
  store i32 %168, ptr %4, align 4
  store i32 1, ptr %12, align 4
  br label %169

169:                                              ; preds = %167, %165, %148, %133, %64, %49, %39, %34, %30, %16
  call void @llvm.lifetime.end.p0(i64 8, ptr %11) #10
  call void @llvm.lifetime.end.p0(i64 8, ptr %10) #10
  call void @llvm.lifetime.end.p0(i64 4, ptr %9) #10
  call void @llvm.lifetime.end.p0(i64 4, ptr %8) #10
  %170 = load i32, ptr %4, align 4
  ret i32 %170
}