; Function Attrs: nounwind uwtable
define range(i32 0, -2147483648) i32 @gzwrite(ptr noundef %0, ptr noundef %1, i32 noundef %2) local_unnamed_addr #0 {
  %4 = icmp eq ptr %0, null
  br i1 %4, label %gz_zero.exit.thread, label %5

5:                                                ; preds = %3
  %6 = getelementptr inbounds nuw i8, ptr %0, i64 120
  %7 = load i32, ptr %0, align 8, !tbaa !3
  %.not = icmp eq i32 %7, 31153
  br i1 %.not, label %8, label %gz_zero.exit.thread

8:                                                ; preds = %5
  %9 = getelementptr inbounds nuw i8, ptr %0, i64 108
  %10 = load i32, ptr %9, align 4, !tbaa !13
  %.not57 = icmp eq i32 %10, 0
  br i1 %.not57, label %11, label %gz_zero.exit.thread

11:                                               ; preds = %8
  %12 = icmp slt i32 %2, 0
  br i1 %12, label %13, label %14

13:                                               ; preds = %11
  tail call void @gz_error(ptr noundef nonnull %0, i32 noundef -5, ptr noundef nonnull @.str) #14
  br label %gz_zero.exit.thread

14:                                               ; preds = %11
  %15 = icmp eq i32 %2, 0
  br i1 %15, label %gz_zero.exit.thread, label %16

16:                                               ; preds = %14
  %17 = getelementptr inbounds nuw i8, ptr %0, i64 24
  %18 = load i32, ptr %17, align 8, !tbaa !14
  %19 = icmp eq i32 %18, 0
  br i1 %19, label %20, label %23

20:                                               ; preds = %16
  %21 = tail call fastcc i32 @gz_init(ptr noundef %0)
  %22 = icmp eq i32 %21, -1
  br i1 %22, label %gz_zero.exit.thread, label %23

23:                                               ; preds = %20, %16
  %24 = getelementptr inbounds nuw i8, ptr %0, i64 104
  %25 = load i32, ptr %24, align 8, !tbaa !15
  %.not58 = icmp eq i32 %25, 0
  br i1 %.not58, label %gz_zero.exit, label %26

26:                                               ; preds = %23
  store i32 0, ptr %24, align 8, !tbaa !15
  %27 = getelementptr inbounds nuw i8, ptr %0, i64 96
  %28 = load i64, ptr %27, align 8, !tbaa !16
  %29 = getelementptr inbounds nuw i8, ptr %0, i64 128
  %30 = load i32, ptr %29, align 8, !tbaa !17
  %.not.i = icmp eq i32 %30, 0
  br i1 %.not.i, label %34, label %31

31:                                               ; preds = %26
  %32 = tail call fastcc i32 @gz_comp(ptr noundef nonnull %0, i32 noundef 0)
  %33 = icmp eq i32 %32, -1
  br i1 %33, label %gz_zero.exit.thread, label %34

34:                                               ; preds = %31, %26
  %.not2224.i = icmp eq i64 %28, 0
  br i1 %.not2224.i, label %gz_zero.exit, label %.lr.ph.i

.lr.ph.i:                                         ; preds = %34
  %35 = getelementptr inbounds nuw i8, ptr %0, i64 32
  %36 = getelementptr inbounds nuw i8, ptr %0, i64 16
  br label %39

37:                                               ; preds = %47
  %38 = sub nsw i64 %.02026.i, %.pre-phi.i
  %.not22.i = icmp eq i64 %38, 0
  br i1 %.not22.i, label %gz_zero.exit, label %39, !llvm.loop !18

39:                                               ; preds = %37, %.lr.ph.i
  %.02026.i = phi i64 [ %28, %.lr.ph.i ], [ %38, %37 ]
  %.not2325.i = phi i1 [ false, %.lr.ph.i ], [ true, %37 ]
  %40 = load i32, ptr %17, align 8, !tbaa !14
  %41 = zext i32 %40 to i64
  %42 = tail call i64 @llvm.smin.i64(i64 %.02026.i, i64 %41)
  %43 = trunc i64 %42 to i32
  br i1 %.not2325.i, label %._crit_edge.i, label %44

._crit_edge.i:                                    ; preds = %39
  %.pre.i = and i64 %42, 4294967295
  br label %47

44:                                               ; preds = %39
  %45 = load ptr, ptr %35, align 8, !tbaa !20
  %46 = and i64 %42, 4294967295
  tail call void @llvm.memset.p0.i64(ptr align 1 %45, i8 0, i64 %46, i1 false)
  br label %47

47:                                               ; preds = %44, %._crit_edge.i
  %.pre-phi.i = phi i64 [ %.pre.i, %._crit_edge.i ], [ %46, %44 ]
  store i32 %43, ptr %29, align 8, !tbaa !17
  %48 = load ptr, ptr %35, align 8, !tbaa !20
  store ptr %48, ptr %6, align 8, !tbaa !21
  %49 = load i64, ptr %36, align 8, !tbaa !22
  %50 = add nsw i64 %49, %.pre-phi.i
  store i64 %50, ptr %36, align 8, !tbaa !22
  %51 = tail call fastcc i32 @gz_comp(ptr noundef nonnull %0, i32 noundef 0)
  %52 = icmp eq i32 %51, -1
  br i1 %52, label %gz_zero.exit.thread, label %37

gz_zero.exit:                                     ; preds = %37, %34, %23
  %53 = load i32, ptr %17, align 8, !tbaa !14
  %54 = icmp ult i32 %2, %53
  %55 = getelementptr inbounds nuw i8, ptr %0, i64 128
  br i1 %54, label %.preheader, label %79

.preheader:                                       ; preds = %gz_zero.exit
  %56 = getelementptr inbounds nuw i8, ptr %0, i64 16
  %57 = getelementptr inbounds nuw i8, ptr %0, i64 32
  br label %58

58:                                               ; preds = %.preheader, %75
  %.052 = phi i32 [ %74, %75 ], [ %2, %.preheader ]
  %.050 = phi ptr [ %76, %75 ], [ %1, %.preheader ]
  %59 = load i32, ptr %55, align 8, !tbaa !17
  %60 = icmp eq i32 %59, 0
  br i1 %60, label %61, label %._crit_edge

._crit_edge:                                      ; preds = %58
  %.pre = load ptr, ptr %6, align 8, !tbaa !21
  br label %63

61:                                               ; preds = %58
  %62 = load ptr, ptr %57, align 8, !tbaa !20
  store ptr %62, ptr %6, align 8, !tbaa !21
  br label %63

63:                                               ; preds = %._crit_edge, %61
  %64 = phi ptr [ %.pre, %._crit_edge ], [ %62, %61 ]
  %65 = load i32, ptr %17, align 8, !tbaa !14
  %66 = sub i32 %65, %59
  %spec.select = tail call i32 @llvm.umin.i32(i32 %66, i32 %.052)
  %67 = zext i32 %59 to i64
  %68 = getelementptr inbounds nuw i8, ptr %64, i64 %67
  %69 = zext i32 %spec.select to i64
  tail call void @llvm.memcpy.p0.p0.i64(ptr align 1 %68, ptr align 1 %.050, i64 %69, i1 false)
  %70 = load i32, ptr %55, align 8, !tbaa !17
  %71 = add i32 %70, %spec.select
  store i32 %71, ptr %55, align 8, !tbaa !17
  %72 = load i64, ptr %56, align 8, !tbaa !22
  %73 = add nsw i64 %72, %69
  store i64 %73, ptr %56, align 8, !tbaa !22
  %74 = sub i32 %.052, %spec.select
  %.not60 = icmp eq i32 %74, 0
  br i1 %.not60, label %.critedge, label %75

75:                                               ; preds = %63
  %76 = getelementptr inbounds nuw i8, ptr %.050, i64 %69
  %77 = tail call fastcc i32 @gz_comp(ptr noundef %0, i32 noundef 0)
  %78 = icmp eq i32 %77, -1
  br i1 %78, label %gz_zero.exit.thread, label %58, !llvm.loop !23

79:                                               ; preds = %gz_zero.exit
  %80 = load i32, ptr %55, align 8, !tbaa !17
  %.not59 = icmp eq i32 %80, 0
  br i1 %.not59, label %84, label %81

81:                                               ; preds = %79
  %82 = tail call fastcc i32 @gz_comp(ptr noundef %0, i32 noundef 0)
  %83 = icmp eq i32 %82, -1
  br i1 %83, label %gz_zero.exit.thread, label %84

84:                                               ; preds = %81, %79
  store i32 %2, ptr %55, align 8, !tbaa !17
  store ptr %1, ptr %6, align 8, !tbaa !21
  %85 = zext nneg i32 %2 to i64
  %86 = getelementptr inbounds nuw i8, ptr %0, i64 16
  %87 = load i64, ptr %86, align 8, !tbaa !22
  %88 = add nsw i64 %87, %85
  store i64 %88, ptr %86, align 8, !tbaa !22
  %89 = tail call fastcc i32 @gz_comp(ptr noundef %0, i32 noundef 0)
  %90 = icmp eq i32 %89, -1
  br i1 %90, label %gz_zero.exit.thread, label %.critedge

.critedge:                                        ; preds = %63, %84
  br label %gz_zero.exit.thread

gz_zero.exit.thread:                              ; preds = %47, %75, %31, %84, %81, %20, %14, %5, %8, %3, %.critedge, %13
  %.0 = phi i32 [ 0, %13 ], [ %2, %.critedge ], [ 0, %3 ], [ 0, %8 ], [ 0, %5 ], [ 0, %14 ], [ 0, %20 ], [ 0, %81 ], [ 0, %84 ], [ 0, %31 ], [ 0, %75 ], [ 0, %47 ]
  ret i32 %.0
}